; Function Attrs: nounwind uwtable
define internal i32 @write_one_config(ptr noundef %0, ptr noundef %1, ptr noundef %2, ptr noundef %3) #0 {
  %5 = tail call i32 @git_clone_config(ptr noundef %0, ptr noundef %1, ptr noundef %2, ptr noundef %3)
  %.not = icmp eq i32 %5, 0
  br i1 %.not, label %6, label %10

6:                                                ; preds = %4
  %.not10 = icmp eq ptr %1, null
  %7 = select i1 %.not10, ptr @.str.40, ptr %1
  %8 = load ptr, ptr @the_repository, align 8, !tbaa !8
  %9 = tail call i32 @repo_config_set_multivar_gently(ptr noundef %8, ptr noundef %0, ptr noundef nonnull %7, ptr noundef nonnull inttoptr (i64 1 to ptr), i32 noundef 0) #20
  br label %10

10:                                               ; preds = %4, %6
  %.0 = phi i32 [ %9, %6 ], [ %5, %4 ]
  ret i32 %.0
}